(lp0
(lp1
(dp2
S'autor'
p3
S'dima'
p4
sS'id'
p5
I0
sS'name'
p6
S'dima'
p7
sa(dp8
g3
S'Vitalik'
p9
sg5
I1
sg6
S'2'
p10
saa(lp11
(dp12
S'albom_id'
p13
I1
sS'format'
p14
S'bmp'
p15
sS'cost'
p16
S'12'
p17
sg5
I0
sg6
S'1'
p18
saa.